target datalayout = "e-m:e-p270:32:32-p271:32:32-p272:64:64-i64:64-i128:128-f80:128-n8:16:32:64-S128"
target triple = "x86_64-pc-linux-gnu"

%"class.pxrInternal_v0_24__pxrReserved__::SdfLayerStateDelegateBase" = type { %"class.pxrInternal_v0_24__pxrReserved__::TfRefBase.base", %"class.pxrInternal_v0_24__pxrReserved__::TfWeakBase", %"class.pxrInternal_v0_24__pxrReserved__::TfWeakPtr" }
%"class.pxrInternal_v0_24__pxrReserved__::TfRefBase.base" = type <{ ptr, %"struct.std::atomic" }>
%"struct.std::atomic" = type { %"struct.std::__atomic_base" }
%"struct.std::__atomic_base" = type { i32 }
%"class.pxrInternal_v0_24__pxrReserved__::TfWeakBase" = type { %"struct.std::atomic.0" }
%"struct.std::atomic.0" = type { %"struct.std::__atomic_base.1" }
%"struct.std::__atomic_base.1" = type { ptr }
%"class.pxrInternal_v0_24__pxrReserved__::TfWeakPtr" = type { ptr, %"class.pxrInternal_v0_24__pxrReserved__::TfRefPtr" }
%"class.pxrInternal_v0_24__pxrReserved__::TfRefPtr" = type { ptr }
%"class.pxrInternal_v0_24__pxrReserved__::TfRefBase" = type <{ ptr, %"struct.std::atomic", [4 x i8] }>
%"class.pxrInternal_v0_24__pxrReserved__::Tf_Remnant" = type { %"class.pxrInternal_v0_24__pxrReserved__::TfSimpleRefBase.base", i8, i8, i8, i8 }
%"class.pxrInternal_v0_24__pxrReserved__::TfSimpleRefBase.base" = type { %"class.pxrInternal_v0_24__pxrReserved__::TfRefBase.base" }

@_ZTVN32pxrInternal_v0_24__pxrReserved__9TfRefBaseE = external unnamed_addr constant { [4 x ptr] }, align 8

; Function Attrs: mustprogress nounwind uwtable
define linkonce_odr noundef nonnull align 4 dereferenceable(4) ptr @_ZNK32pxrInternal_v0_24__pxrReserved__9TfRefBase12_GetRefCountEv(ptr noundef nonnull align 8 dereferenceable(12) %0) #1 comdat align 2 {
  %2 = alloca ptr, align 8
  store ptr %0, ptr %2, align 8
  %3 = load ptr, ptr %2, align 8
  %4 = getelementptr inbounds nuw %"class.pxrInternal_v0_24__pxrReserved__::TfRefBase", ptr %3, i32 0, i32 1
  ret ptr %4
}

; Function Attrs: mustprogress nounwind uwtable
define linkonce_odr void @_ZN32pxrInternal_v0_24__pxrReserved__24Tf_RefPtrTracker_LastRefEPKvS1_(ptr noundef %0, ptr noundef %1) #1 comdat {
  %3 = alloca ptr, align 8
  %4 = alloca ptr, align 8
  store ptr %0, ptr %3, align 8
  store ptr %1, ptr %4, align 8
  ret void
}

; Function Attrs: mustprogress uwtable
define linkonce_odr noundef zeroext i1 @_ZN32pxrInternal_v0_24__pxrReserved__17Tf_RefPtr_Counter9RemoveRefEPKNS_9TfRefBaseE(ptr noundef %0) #0 comdat align 2 {
  %2 = alloca ptr, align 8
  %3 = alloca i32, align 4
  %4 = alloca i32, align 4
  %5 = alloca i32, align 4
  %6 = alloca i32, align 4
  %7 = alloca i1, align 1
  %8 = alloca ptr, align 8
  store ptr %0, ptr %8, align 8
  %9 = load ptr, ptr %8, align 8
  %10 = icmp ne ptr %9, null
  %11 = xor i1 %10, true
  br i1 %11, label %12, label %13

12:                                               ; preds = %1
  store i1 false, ptr %7, align 1
  br label %37

13:                                               ; preds = %1
  %14 = load ptr, ptr %8, align 8
  %15 = call noundef nonnull align 4 dereferenceable(4) ptr @_ZNK32pxrInternal_v0_24__pxrReserved__9TfRefBase12_GetRefCountEv(ptr noundef nonnull align 8 dereferenceable(12) %14)
  store ptr %15, ptr %2, align 8
  store i32 1, ptr %3, align 4
  store i32 3, ptr %4, align 4
  %16 = load ptr, ptr %2, align 8
  %17 = load i32, ptr %4, align 4
  %18 = load i32, ptr %3, align 4
  store i32 %18, ptr %5, align 4
  switch i32 %17, label %19 [
    i32 1, label %22
    i32 2, label %22
    i32 3, label %25
    i32 4, label %28
    i32 5, label %31
  ]

19:                                               ; preds = %13
  %20 = load i32, ptr %5, align 4
  %21 = atomicrmw sub ptr %16, i32 %20 monotonic, align 4
  store i32 %21, ptr %6, align 4
  br label %34

22:                                               ; preds = %13, %13
  %23 = load i32, ptr %5, align 4
  %24 = atomicrmw sub ptr %16, i32 %23 acquire, align 4
  store i32 %24, ptr %6, align 4
  br label %34

25:                                               ; preds = %13
  %26 = load i32, ptr %5, align 4
  %27 = atomicrmw sub ptr %16, i32 %26 release, align 4
  store i32 %27, ptr %6, align 4
  br label %34

28:                                               ; preds = %13
  %29 = load i32, ptr %5, align 4
  %30 = atomicrmw sub ptr %16, i32 %29 acq_rel, align 4
  store i32 %30, ptr %6, align 4
  br label %34

31:                                               ; preds = %13
  %32 = load i32, ptr %5, align 4
  %33 = atomicrmw sub ptr %16, i32 %32 seq_cst, align 4
  store i32 %33, ptr %6, align 4
  br label %34

34:                                               ; preds = %31, %28, %25, %22, %19
  %35 = load i32, ptr %6, align 4
  %36 = icmp eq i32 %35, 1
  store i1 %36, ptr %7, align 1
  br label %37

37:                                               ; preds = %34, %12
  %38 = load i1, ptr %7, align 1
  ret i1 %38
}

; Function Attrs: mustprogress nounwind uwtable
define linkonce_odr void @_ZN32pxrInternal_v0_24__pxrReserved__25Tf_RefPtrTracker_FirstRefEPKvS1_(ptr noundef %0, ptr noundef %1) #1 comdat {
  %3 = alloca ptr, align 8
  %4 = alloca ptr, align 8
  store ptr %0, ptr %3, align 8
  store ptr %1, ptr %4, align 8
  ret void
}

; Function Attrs: mustprogress uwtable
define linkonce_odr void @_ZNK32pxrInternal_v0_24__pxrReserved__8TfRefPtrINS_10Tf_RemnantEE10_RemoveRefEPKNS_9TfRefBaseE(ptr noundef nonnull align 8 dereferenceable(8) %0, ptr noundef %1) #0 comdat align 2 {
  %3 = alloca ptr, align 8
  %4 = alloca ptr, align 8
  store ptr %0, ptr %3, align 8
  store ptr %1, ptr %4, align 8
  %5 = load ptr, ptr %3, align 8
  %6 = load ptr, ptr %4, align 8
  %7 = call noundef zeroext i1 @_ZN32pxrInternal_v0_24__pxrReserved__17Tf_RefPtr_Counter9RemoveRefEPKNS_9TfRefBaseE(ptr noundef %6)
  br i1 %7, label %8, label %17

8:                                                ; preds = %2
  %9 = load ptr, ptr %4, align 8
  call void @_ZN32pxrInternal_v0_24__pxrReserved__24Tf_RefPtrTracker_LastRefEPKvS1_(ptr noundef %5, ptr noundef %9)
  %10 = load ptr, ptr %4, align 8
  %11 = icmp eq ptr %10, null
  br i1 %11, label %16, label %12

12:                                               ; preds = %8
  %13 = load ptr, ptr %10, align 8
  %14 = getelementptr inbounds ptr, ptr %13, i64 1
  %15 = load ptr, ptr %14, align 8
  call void %15(ptr noundef nonnull align 8 dereferenceable(12) %10) #9
  br label %16

16:                                               ; preds = %12, %8
  br label %17

17:                                               ; preds = %16, %2
  ret void
}

; Function Attrs: mustprogress nounwind uwtable
define linkonce_odr void @_ZN32pxrInternal_v0_24__pxrReserved__23Tf_RefPtrTracker_DeleteEPKvS1_(ptr noundef %0, ptr noundef %1) #1 comdat {
  %3 = alloca ptr, align 8
  %4 = alloca ptr, align 8
  store ptr %0, ptr %3, align 8
  store ptr %1, ptr %4, align 8
  ret void
}

; Function Attrs: mustprogress uwtable
define linkonce_odr void @_ZN32pxrInternal_v0_24__pxrReserved__8TfRefPtrINS_10Tf_RemnantEEC2EPS1_NS2_13_CreateRefPtrE(ptr noundef nonnull align 8 dereferenceable(8) %0, ptr noundef %1) unnamed_addr #0 comdat align 2 {
  %3 = alloca ptr, align 8
  %4 = alloca ptr, align 8
  store ptr %0, ptr %3, align 8
  store ptr %1, ptr %4, align 8
  %5 = load ptr, ptr %3, align 8
  %6 = getelementptr inbounds nuw %"class.pxrInternal_v0_24__pxrReserved__::TfRefPtr", ptr %5, i32 0, i32 0
  %7 = load ptr, ptr %4, align 8
  store ptr %7, ptr %6, align 8
  %8 = call noundef ptr @_ZNK32pxrInternal_v0_24__pxrReserved__8TfRefPtrINS_10Tf_RemnantEE21_GetObjectForTrackingEv(ptr noundef nonnull align 8 dereferenceable(8) %5)
  call void @_ZN32pxrInternal_v0_24__pxrReserved__25Tf_RefPtrTracker_FirstRefEPKvS1_(ptr noundef %5, ptr noundef %8)
  %9 = call noundef ptr @_ZNK32pxrInternal_v0_24__pxrReserved__8TfRefPtrINS_10Tf_RemnantEE21_GetObjectForTrackingEv(ptr noundef nonnull align 8 dereferenceable(8) %5)
  call void @_ZN32pxrInternal_v0_24__pxrReserved__20Tf_RefPtrTracker_NewEPKvS1_(ptr noundef %5, ptr noundef %9)
  ret void
}

; Function Attrs: mustprogress nounwind uwtable
define linkonce_odr noundef i32 @_ZStanSt12memory_orderSt23__memory_order_modifier(i32 noundef %0, i32 noundef %1) #1 comdat {
  %3 = alloca i32, align 4
  %4 = alloca i32, align 4
  store i32 %0, ptr %3, align 4
  store i32 %1, ptr %4, align 4
  %5 = load i32, ptr %3, align 4
  %6 = load i32, ptr %4, align 4
  %7 = and i32 %5, %6
  ret i32 %7
}

; Function Attrs: mustprogress nounwind uwtable
define linkonce_odr void @_ZN32pxrInternal_v0_24__pxrReserved__20Tf_RefPtrTracker_NewEPKvS1_(ptr noundef %0, ptr noundef %1) #1 comdat {
  %3 = alloca ptr, align 8
  %4 = alloca ptr, align 8
  store ptr %0, ptr %3, align 8
  store ptr %1, ptr %4, align 8
  ret void
}

; Function Attrs: mustprogress nounwind uwtable
define linkonce_odr noundef ptr @_ZNK32pxrInternal_v0_24__pxrReserved__8TfRefPtrINS_10Tf_RemnantEE21_GetObjectForTrackingEv(ptr noundef nonnull align 8 dereferenceable(8) %0) #1 comdat align 2 {
  %2 = alloca ptr, align 8
  store ptr %0, ptr %2, align 8
  %3 = load ptr, ptr %2, align 8
  %4 = getelementptr inbounds nuw %"class.pxrInternal_v0_24__pxrReserved__::TfRefPtr", ptr %3, i32 0, i32 0
  %5 = load ptr, ptr %4, align 8
  ret ptr %5
}

; Function Attrs: mustprogress nounwind uwtable
define linkonce_odr void @_ZNSt13__atomic_baseIPN32pxrInternal_v0_24__pxrReserved__10Tf_RemnantEEC2ES2_(ptr noundef nonnull align 8 dereferenceable(8) %0, ptr noundef %1) unnamed_addr #1 comdat align 2 {
  %3 = alloca ptr, align 8
  %4 = alloca ptr, align 8
  store ptr %0, ptr %3, align 8
  store ptr %1, ptr %4, align 8
  %5 = load ptr, ptr %3, align 8
  %6 = getelementptr inbounds nuw %"struct.std::__atomic_base.1", ptr %5, i32 0, i32 0
  %7 = load ptr, ptr %4, align 8
  store ptr %7, ptr %6, align 8
  ret void
}

; Function Attrs: mustprogress nounwind uwtable
define linkonce_odr void @_ZNSt13__atomic_baseIiEC2Ei(ptr noundef nonnull align 4 dereferenceable(4) %0, i32 noundef %1) unnamed_addr #1 comdat align 2 {
  %3 = alloca ptr, align 8
  %4 = alloca i32, align 4
  store ptr %0, ptr %3, align 8
  store i32 %1, ptr %4, align 4
  %5 = load ptr, ptr %3, align 8
  %6 = getelementptr inbounds nuw %"struct.std::__atomic_base", ptr %5, i32 0, i32 0
  %7 = load i32, ptr %4, align 4
  store i32 %7, ptr %6, align 4
  ret void
}

; Function Attrs: noreturn nounwind uwtable
define linkonce_odr hidden void @__clang_call_terminate(ptr noundef %0) #7 comdat {
  %2 = call ptr @__cxa_begin_catch(ptr %0) #9
  call void @_ZSt9terminatev() #10
  unreachable
}

; Function Attrs: mustprogress nounwind uwtable
define linkonce_odr void @_ZN32pxrInternal_v0_24__pxrReserved__8TfRefPtrINS_10Tf_RemnantEED2Ev(ptr noundef nonnull align 8 dereferenceable(8) %0) unnamed_addr #1 comdat align 2 personality ptr @__gxx_personality_v0 {
  %2 = alloca ptr, align 8
  store ptr %0, ptr %2, align 8
  %3 = load ptr, ptr %2, align 8
  %4 = call noundef ptr @_ZNK32pxrInternal_v0_24__pxrReserved__8TfRefPtrINS_10Tf_RemnantEE21_GetObjectForTrackingEv(ptr noundef nonnull align 8 dereferenceable(8) %3)
  invoke void @_ZN32pxrInternal_v0_24__pxrReserved__23Tf_RefPtrTracker_DeleteEPKvS1_(ptr noundef %3, ptr noundef %4)
          to label %5 unwind label %9

5:                                                ; preds = %1
  %6 = getelementptr inbounds nuw %"class.pxrInternal_v0_24__pxrReserved__::TfRefPtr", ptr %3, i32 0, i32 0
  %7 = load ptr, ptr %6, align 8
  invoke void @_ZNK32pxrInternal_v0_24__pxrReserved__8TfRefPtrINS_10Tf_RemnantEE10_RemoveRefEPKNS_9TfRefBaseE(ptr noundef nonnull align 8 dereferenceable(8) %3, ptr noundef %7)
          to label %8 unwind label %9

8:                                                ; preds = %5
  ret void

9:                                                ; preds = %5, %1
  %10 = landingpad { ptr, i32 }
          catch ptr null
  %11 = extractvalue { ptr, i32 } %10, 0
  call void @__clang_call_terminate(ptr %11) #10
  unreachable
}

; Function Attrs: mustprogress uwtable
define linkonce_odr void @_ZN32pxrInternal_v0_24__pxrReserved__14TfCreateRefPtrINS_10Tf_RemnantEEENS_8TfRefPtrIT_EEPS3_(ptr dead_on_unwind noalias writable sret(%"class.pxrInternal_v0_24__pxrReserved__::TfRefPtr") align 8 %0, ptr noundef %1) #0 comdat {
  %3 = alloca ptr, align 8
  %4 = alloca ptr, align 8
  store ptr %0, ptr %3, align 8
  store ptr %1, ptr %4, align 8
  %5 = load ptr, ptr %4, align 8
  call void @_ZN32pxrInternal_v0_24__pxrReserved__8TfRefPtrINS_10Tf_RemnantEEC2EPS1_NS2_13_CreateRefPtrE(ptr noundef nonnull align 8 dereferenceable(8) %0, ptr noundef %5)
  ret void
}

; Function Attrs: mustprogress uwtable
define linkonce_odr void @_ZN32pxrInternal_v0_24__pxrReserved__10Tf_Remnant7_ForgetEv(ptr noundef nonnull align 8 dereferenceable(15) %0) #0 comdat align 2 {
  %2 = alloca ptr, align 8
  store ptr %0, ptr %2, align 8
  %3 = load ptr, ptr %2, align 8
  %4 = getelementptr inbounds nuw %"class.pxrInternal_v0_24__pxrReserved__::Tf_Remnant", ptr %3, i32 0, i32 3
  store i8 0, ptr %4, align 2
  %5 = getelementptr inbounds nuw %"class.pxrInternal_v0_24__pxrReserved__::Tf_Remnant", ptr %3, i32 0, i32 2
  %6 = load i8, ptr %5, align 1
  %7 = trunc i8 %6 to i1
  br i1 %7, label %8, label %9

8:                                                ; preds = %1
  call void @_ZN32pxrInternal_v0_24__pxrReserved__17Tf_ExpiryNotifier7Invoke2EPKv(ptr noundef %3)
  br label %9

9:                                                ; preds = %8, %1
  ret void
}

; Function Attrs: mustprogress nounwind uwtable
define linkonce_odr noundef ptr @_ZNKSt6atomicIPN32pxrInternal_v0_24__pxrReserved__10Tf_RemnantEE4loadESt12memory_order(ptr noundef nonnull align 8 dereferenceable(8) %0, i32 noundef %1) #1 comdat align 2 personality ptr @__gxx_personality_v0 {
  %3 = alloca ptr, align 8
  %4 = alloca i32, align 4
  %5 = alloca i32, align 4
  %6 = alloca ptr, align 8
  %7 = alloca ptr, align 8
  %8 = alloca i32, align 4
  store ptr %0, ptr %7, align 8
  store i32 %1, ptr %8, align 4
  %9 = load ptr, ptr %7, align 8
  %10 = getelementptr inbounds nuw %"struct.std::atomic.0", ptr %9, i32 0, i32 0
  %11 = load i32, ptr %8, align 4
  store ptr %10, ptr %3, align 8
  store i32 %11, ptr %4, align 4
  %12 = load ptr, ptr %3, align 8
  %13 = load i32, ptr %4, align 4
  %14 = invoke noundef i32 @_ZStanSt12memory_orderSt23__memory_order_modifier(i32 noundef %13, i32 noundef 65535)
          to label %15 unwind label %23

15:                                               ; preds = %2
  store i32 %14, ptr %5, align 4
  %16 = load i32, ptr %4, align 4
  switch i32 %16, label %17 [
    i32 1, label %19
    i32 2, label %19
    i32 5, label %21
  ]

17:                                               ; preds = %15
  %18 = load atomic i64, ptr %12 monotonic, align 8
  store i64 %18, ptr %6, align 8
  br label %26

19:                                               ; preds = %15, %15
  %20 = load atomic i64, ptr %12 acquire, align 8
  store i64 %20, ptr %6, align 8
  br label %26

21:                                               ; preds = %15
  %22 = load atomic i64, ptr %12 seq_cst, align 8
  store i64 %22, ptr %6, align 8
  br label %26

23:                                               ; preds = %2
  %24 = landingpad { ptr, i32 }
          catch ptr null
  %25 = extractvalue { ptr, i32 } %24, 0
  call void @__clang_call_terminate(ptr %25) #10
  unreachable

26:                                               ; preds = %21, %19, %17
  %27 = load ptr, ptr %6, align 8
  ret ptr %27
}

; Function Attrs: mustprogress nounwind uwtable
define linkonce_odr void @_ZN32pxrInternal_v0_24__pxrReserved__8TfRefPtrINS_10Tf_RemnantEEC2Ev(ptr noundef nonnull align 8 dereferenceable(8) %0) unnamed_addr #1 comdat align 2 {
  %2 = alloca ptr, align 8
  store ptr %0, ptr %2, align 8
  %3 = load ptr, ptr %2, align 8
  %4 = getelementptr inbounds nuw %"class.pxrInternal_v0_24__pxrReserved__::TfRefPtr", ptr %3, i32 0, i32 0
  store ptr null, ptr %4, align 8
  %5 = call noundef ptr @_ZNK32pxrInternal_v0_24__pxrReserved__8TfRefPtrINS_10Tf_RemnantEE21_GetObjectForTrackingEv(ptr noundef nonnull align 8 dereferenceable(8) %3)
  call void @_ZN32pxrInternal_v0_24__pxrReserved__20Tf_RefPtrTracker_NewEPKvS1_(ptr noundef %3, ptr noundef %5)
  ret void
}

; Function Attrs: mustprogress nounwind uwtable
define linkonce_odr void @_ZNSt6atomicIPN32pxrInternal_v0_24__pxrReserved__10Tf_RemnantEEC2ES2_(ptr noundef nonnull align 8 dereferenceable(8) %0, ptr noundef %1) unnamed_addr #1 comdat align 2 {
  %3 = alloca ptr, align 8
  %4 = alloca ptr, align 8
  store ptr %0, ptr %3, align 8
  store ptr %1, ptr %4, align 8
  %5 = load ptr, ptr %3, align 8
  %6 = getelementptr inbounds nuw %"struct.std::atomic.0", ptr %5, i32 0, i32 0
  %7 = load ptr, ptr %4, align 8
  call void @_ZNSt13__atomic_baseIPN32pxrInternal_v0_24__pxrReserved__10Tf_RemnantEEC2ES2_(ptr noundef nonnull align 8 dereferenceable(8) %6, ptr noundef %7) #9
  ret void
}

; Function Attrs: mustprogress nounwind uwtable
define linkonce_odr void @_ZNSt6atomicIiEC2Ei(ptr noundef nonnull align 4 dereferenceable(4) %0, i32 noundef %1) unnamed_addr #1 comdat align 2 {
  %3 = alloca ptr, align 8
  %4 = alloca i32, align 4
  store ptr %0, ptr %3, align 8
  store i32 %1, ptr %4, align 4
  %5 = load ptr, ptr %3, align 8
  %6 = load i32, ptr %4, align 4
  call void @_ZNSt13__atomic_baseIiEC2Ei(ptr noundef nonnull align 4 dereferenceable(4) %5, i32 noundef %6) #9
  ret void
}

; Function Attrs: mustprogress nounwind uwtable
define linkonce_odr void @_ZN32pxrInternal_v0_24__pxrReserved__10TfWeakBaseD2Ev(ptr noundef nonnull align 8 dereferenceable(8) %0) unnamed_addr #1 comdat align 2 personality ptr @__gxx_personality_v0 {
  %2 = alloca ptr, align 8
  %3 = alloca ptr, align 8
  %4 = alloca %"class.pxrInternal_v0_24__pxrReserved__::TfRefPtr", align 8
  store ptr %0, ptr %2, align 8
  %5 = load ptr, ptr %2, align 8
  %6 = getelementptr inbounds nuw %"class.pxrInternal_v0_24__pxrReserved__::TfWeakBase", ptr %5, i32 0, i32 0
  %7 = call noundef ptr @_ZNKSt6atomicIPN32pxrInternal_v0_24__pxrReserved__10Tf_RemnantEE4loadESt12memory_order(ptr noundef nonnull align 8 dereferenceable(8) %6, i32 noundef 0) #9
  store ptr %7, ptr %3, align 8
  %8 = load ptr, ptr %3, align 8
  %9 = icmp ne ptr %8, null
  br i1 %9, label %10, label %15

10:                                               ; preds = %1
  %11 = load ptr, ptr %3, align 8
  invoke void @_ZN32pxrInternal_v0_24__pxrReserved__10Tf_Remnant7_ForgetEv(ptr noundef nonnull align 8 dereferenceable(15) %11)
          to label %12 unwind label %16

12:                                               ; preds = %10
  %13 = load ptr, ptr %3, align 8
  invoke void @_ZN32pxrInternal_v0_24__pxrReserved__14TfCreateRefPtrINS_10Tf_RemnantEEENS_8TfRefPtrIT_EEPS3_(ptr dead_on_unwind writable sret(%"class.pxrInternal_v0_24__pxrReserved__::TfRefPtr") align 8 %4, ptr noundef %13)
          to label %14 unwind label %16

14:                                               ; preds = %12
  call void @_ZN32pxrInternal_v0_24__pxrReserved__8TfRefPtrINS_10Tf_RemnantEED2Ev(ptr noundef nonnull align 8 dereferenceable(8) %4) #9
  br label %15

15:                                               ; preds = %14, %1
  ret void

16:                                               ; preds = %12, %10
  %17 = landingpad { ptr, i32 }
          catch ptr null
  %18 = extractvalue { ptr, i32 } %17, 0
  call void @__clang_call_terminate(ptr %18) #10
  unreachable
}

; Function Attrs: mustprogress uwtable
define linkonce_odr void @_ZN32pxrInternal_v0_24__pxrReserved__9TfWeakPtrINS_8SdfLayerEEC2Ev(ptr noundef nonnull align 8 dereferenceable(16) %0) unnamed_addr #0 comdat align 2 {
  %2 = alloca ptr, align 8
  store ptr %0, ptr %2, align 8
  %3 = load ptr, ptr %2, align 8
  %4 = getelementptr inbounds nuw %"class.pxrInternal_v0_24__pxrReserved__::TfWeakPtr", ptr %3, i32 0, i32 0
  store ptr null, ptr %4, align 8
  %5 = getelementptr inbounds nuw %"class.pxrInternal_v0_24__pxrReserved__::TfWeakPtr", ptr %3, i32 0, i32 1
  call void @_ZN32pxrInternal_v0_24__pxrReserved__8TfRefPtrINS_10Tf_RemnantEEC2Ev(ptr noundef nonnull align 8 dereferenceable(8) %5)
  ret void
}

; Function Attrs: mustprogress nounwind uwtable
define linkonce_odr void @_ZN32pxrInternal_v0_24__pxrReserved__10TfWeakBaseC2Ev(ptr noundef nonnull align 8 dereferenceable(8) %0) unnamed_addr #1 comdat align 2 {
  %2 = alloca ptr, align 8
  store ptr %0, ptr %2, align 8
  %3 = load ptr, ptr %2, align 8
  %4 = getelementptr inbounds nuw %"class.pxrInternal_v0_24__pxrReserved__::TfWeakBase", ptr %3, i32 0, i32 0
  call void @_ZNSt6atomicIPN32pxrInternal_v0_24__pxrReserved__10Tf_RemnantEEC2ES2_(ptr noundef nonnull align 8 dereferenceable(8) %4, ptr noundef null) #9
  ret void
}

; Function Attrs: mustprogress nounwind uwtable
define linkonce_odr void @_ZN32pxrInternal_v0_24__pxrReserved__9TfRefBaseC2Ev(ptr noundef nonnull align 8 dereferenceable(12) %0) unnamed_addr #1 comdat align 2 {
  %2 = alloca ptr, align 8
  store ptr %0, ptr %2, align 8
  %3 = load ptr, ptr %2, align 8
  store ptr getelementptr inbounds inrange(-16, 16) ({ [4 x ptr] }, ptr @_ZTVN32pxrInternal_v0_24__pxrReserved__9TfRefBaseE, i32 0, i32 0, i32 2), ptr %3, align 8
  %4 = getelementptr inbounds nuw %"class.pxrInternal_v0_24__pxrReserved__::TfRefBase", ptr %3, i32 0, i32 1
  call void @_ZNSt6atomicIiEC2Ei(ptr noundef nonnull align 4 dereferenceable(4) %4, i32 noundef 1) #9
  ret void
}

; Function Attrs: mustprogress uwtable
define void @_ZN32pxrInternal_v0_24__pxrReserved__25SdfLayerStateDelegateBaseC2Ev(ptr noundef nonnull align 8 dereferenceable(40) %0) unnamed_addr #0 align 2 personality ptr @__gxx_personality_v0 {
  %2 = alloca ptr, align 8
  %3 = alloca ptr, align 8
  %4 = alloca i32, align 4
  store ptr %0, ptr %2, align 8
  %5 = load ptr, ptr %2, align 8
  call void @_ZN32pxrInternal_v0_24__pxrReserved__9TfRefBaseC2Ev(ptr noundef nonnull align 8 dereferenceable(12) %5)
  %6 = getelementptr inbounds i8, ptr %5, i64 16
  invoke void @_ZN32pxrInternal_v0_24__pxrReserved__10TfWeakBaseC2Ev(ptr noundef nonnull align 8 dereferenceable(8) %6)
          to label %7 unwind label %10

7:                                                ; preds = %1
  store ptr getelementptr inbounds inrange(-16, 152) ({ [21 x ptr] }, ptr @_ZTVN32pxrInternal_v0_24__pxrReserved__25SdfLayerStateDelegateBaseE, i32 0, i32 0, i32 2), ptr %5, align 8
  %8 = getelementptr inbounds nuw %"class.pxrInternal_v0_24__pxrReserved__::SdfLayerStateDelegateBase", ptr %5, i32 0, i32 2
  invoke void @_ZN32pxrInternal_v0_24__pxrReserved__9TfWeakPtrINS_8SdfLayerEEC2Ev(ptr noundef nonnull align 8 dereferenceable(16) %8)
          to label %9 unwind label %14

9:                                                ; preds = %7
  ret void

10:                                               ; preds = %1
  %11 = landingpad { ptr, i32 }
          cleanup
  %12 = extractvalue { ptr, i32 } %11, 0
  store ptr %12, ptr %3, align 8
  %13 = extractvalue { ptr, i32 } %11, 1
  store i32 %13, ptr %4, align 4
  br label %19

14:                                               ; preds = %7
  %15 = landingpad { ptr, i32 }
          cleanup
  %16 = extractvalue { ptr, i32 } %15, 0
  store ptr %16, ptr %3, align 8
  %17 = extractvalue { ptr, i32 } %15, 1
  store i32 %17, ptr %4, align 4
  %18 = getelementptr inbounds i8, ptr %5, i64 16
  call void @_ZN32pxrInternal_v0_24__pxrReserved__10TfWeakBaseD2Ev(ptr noundef nonnull align 8 dereferenceable(8) %18) #9
  br label %19

19:                                               ; preds = %14, %10
  call void @_ZN32pxrInternal_v0_24__pxrReserved__9TfRefBaseD2Ev(ptr noundef nonnull align 8 dereferenceable(12) %5) #9
  br label %20

20:                                               ; preds = %19
  %21 = load ptr, ptr %3, align 8
  %22 = load i32, ptr %4, align 4
  %23 = insertvalue { ptr, i32 } poison, ptr %21, 0
  %24 = insertvalue { ptr, i32 } %23, i32 %22, 1
  resume { ptr, i32 } %24
}